target datalayout = "e-m:e-p270:32:32-p271:32:32-p272:64:64-i64:64-i128:128-f80:128-n8:16:32:64-S128"
target triple = "x86_64-pc-linux-gnu"

%struct.CheckpointStatsData = type { i64, i64, i64, i64, i64, i32, i32, i32, i32, i32, i32, i64, i64 }
%struct.XLogCtlData = type { %struct.XLogCtlInsert, %struct.XLogwrtRqst, i64, %struct.FullTransactionId, i64, i64, i64, %struct.pg_atomic_uint64, i64, i64, %struct.pg_atomic_uint64, %struct.pg_atomic_uint64, %struct.pg_atomic_uint64, i64, ptr, ptr, i32, i32, i32, i32, i8, i8, i64, i64, %struct.CheckPoint, i64, i8 }
%struct.XLogCtlInsert = type { i8, i64, i64, [128 x i8], i64, i8, i32, i64, ptr }
%struct.XLogwrtRqst = type { i64, i64 }
%struct.FullTransactionId = type { i64 }
%struct.pg_atomic_uint64 = type { i64 }
%struct.CheckPoint = type { i64, i32, i32, i8, i32, %struct.FullTransactionId, i32, i32, i32, i32, i32, i32, i32, i64, i32, i32, i32 }
%struct.dirent = type { i64, i64, i16, i8, [256 x i8] }

@wal_recycle = dso_local global i8 1, align 1
@XLogCtl = internal global ptr null, align 8
@.str.14 = private unnamed_addr constant [7 x i8] c"xlog.c\00", align 1
@CheckpointStats = dso_local global %struct.CheckpointStatsData zeroinitializer, align 8
@.str.120 = private unnamed_addr constant [10 x i8] c"pg_wal/%s\00", align 1
@.str.121 = private unnamed_addr constant [35 x i8] c"recycled write-ahead log file \22%s\22\00", align 1
@__func__.RemoveXlogFile = private unnamed_addr constant [15 x i8] c"RemoveXlogFile\00", align 1
@.str.122 = private unnamed_addr constant [35 x i8] c"removing write-ahead log file \22%s\22\00", align 1

; Function Attrs: nounwind uwtable
define internal void @RemoveXlogFile(ptr noundef %0, i64 noundef %1, ptr noundef %2, i32 noundef %3) #0 {
  %5 = alloca ptr, align 8
  %6 = alloca i64, align 8
  %7 = alloca ptr, align 8
  %8 = alloca i32, align 4
  %9 = alloca [1024 x i8], align 16
  %10 = alloca ptr, align 8
  %11 = alloca i32, align 4
  %12 = alloca i32, align 4
  store ptr %0, ptr %5, align 8
  store i64 %1, ptr %6, align 8
  store ptr %2, ptr %7, align 8
  store i32 %3, ptr %8, align 4
  call void @llvm.lifetime.start.p0(i64 1024, ptr %9) #16
  call void @llvm.lifetime.start.p0(i64 8, ptr %10) #16
  %13 = load ptr, ptr %5, align 8
  %14 = getelementptr inbounds nuw %struct.dirent, ptr %13, i32 0, i32 4
  %15 = getelementptr inbounds [256 x i8], ptr %14, i64 0, i64 0
  store ptr %15, ptr %10, align 8
  %16 = getelementptr inbounds [1024 x i8], ptr %9, i64 0, i64 0
  %17 = load ptr, ptr %10, align 8
  %18 = call i32 (ptr, i64, ptr, ...) @pg_snprintf(ptr noundef %16, i64 noundef 1024, ptr noundef @.str.120, ptr noundef %17)
  %19 = load i8, ptr @wal_recycle, align 1, !range !4, !noundef !5
  %20 = trunc i8 %19 to i1
  br i1 %20, label %21, label %59

21:                                               ; preds = %4
  %22 = load ptr, ptr %7, align 8
  %23 = load i64, ptr %22, align 8
  %24 = load i64, ptr %6, align 8
  %25 = icmp ule i64 %23, %24
  br i1 %25, label %26, label %59

26:                                               ; preds = %21
  %27 = load ptr, ptr @XLogCtl, align 8
  %28 = getelementptr inbounds nuw %struct.XLogCtlData, ptr %27, i32 0, i32 20
  %29 = load i8, ptr %28, align 8, !range !4, !noundef !5
  %30 = trunc i8 %29 to i1
  br i1 %30, label %31, label %59

31:                                               ; preds = %26
  %32 = getelementptr inbounds [1024 x i8], ptr %9, i64 0, i64 0
  %33 = load ptr, ptr %5, align 8
  %34 = call i32 @get_dirent_type(ptr noundef %32, ptr noundef %33, i1 noundef zeroext false, i32 noundef 13)
  %35 = icmp eq i32 %34, 2
  br i1 %35, label %36, label %59

36:                                               ; preds = %31
  %37 = load ptr, ptr %7, align 8
  %38 = getelementptr inbounds [1024 x i8], ptr %9, i64 0, i64 0
  %39 = load i64, ptr %6, align 8
  %40 = load i32, ptr %8, align 4
  %41 = call zeroext i1 @InstallXLogFileSegment(ptr noundef %37, ptr noundef %38, i1 noundef zeroext true, i64 noundef %39, i32 noundef %40)
  br i1 %41, label %42, label %59

42:                                               ; preds = %36
  br label %43

43:                                               ; preds = %42
  br i1 false, label %44, label %46

44:                                               ; preds = %43
  %45 = call zeroext i1 @errstart_cold(i32 noundef 13, ptr noundef null) #17
  br i1 %45, label %48, label %51

46:                                               ; preds = %43
  %47 = call zeroext i1 @errstart(i32 noundef 13, ptr noundef null)
  br i1 %47, label %48, label %51

48:                                               ; preds = %46, %44
  %49 = load ptr, ptr %10, align 8
  %50 = call i32 (ptr, ...) @errmsg_internal(ptr noundef @.str.121, ptr noundef %49)
  call void @errfinish(ptr noundef @.str.14, i32 noundef 4056, ptr noundef @__func__.RemoveXlogFile)
  br label %51

51:                                               ; preds = %48, %46, %44
  br label %52

52:                                               ; preds = %51
  br label %53

53:                                               ; preds = %52
  %54 = load i32, ptr getelementptr inbounds nuw (%struct.CheckpointStatsData, ptr @CheckpointStats, i32 0, i32 9), align 8
  %55 = add i32 %54, 1
  store i32 %55, ptr getelementptr inbounds nuw (%struct.CheckpointStatsData, ptr @CheckpointStats, i32 0, i32 9), align 8
  %56 = load ptr, ptr %7, align 8
  %57 = load i64, ptr %56, align 8
  %58 = add i64 %57, 1
  store i64 %58, ptr %56, align 8
  br label %82

59:                                               ; preds = %36, %31, %26, %21, %4
  call void @llvm.lifetime.start.p0(i64 4, ptr %11) #16
  br label %60

60:                                               ; preds = %59
  br i1 false, label %61, label %63

61:                                               ; preds = %60
  %62 = call zeroext i1 @errstart_cold(i32 noundef 13, ptr noundef null) #17
  br i1 %62, label %65, label %68

63:                                               ; preds = %60
  %64 = call zeroext i1 @errstart(i32 noundef 13, ptr noundef null)
  br i1 %64, label %65, label %68

65:                                               ; preds = %63, %61
  %66 = load ptr, ptr %10, align 8
  %67 = call i32 (ptr, ...) @errmsg_internal(ptr noundef @.str.122, ptr noundef %66)
  call void @errfinish(ptr noundef @.str.14, i32 noundef 4068, ptr noundef @__func__.RemoveXlogFile)
  br label %68

68:                                               ; preds = %65, %63, %61
  br label %69

69:                                               ; preds = %68
  br label %70

70:                                               ; preds = %69
  %71 = getelementptr inbounds [1024 x i8], ptr %9, i64 0, i64 0
  %72 = call i32 @durable_unlink(ptr noundef %71, i32 noundef 15)
  store i32 %72, ptr %11, align 4
  %73 = load i32, ptr %11, align 4
  %74 = icmp ne i32 %73, 0
  br i1 %74, label %75, label %76

75:                                               ; preds = %70
  store i32 1, ptr %12, align 4
  br label %79

76:                                               ; preds = %70
  %77 = load i32, ptr getelementptr inbounds nuw (%struct.CheckpointStatsData, ptr @CheckpointStats, i32 0, i32 8), align 4
  %78 = add i32 %77, 1
  store i32 %78, ptr getelementptr inbounds nuw (%struct.CheckpointStatsData, ptr @CheckpointStats, i32 0, i32 8), align 4
  store i32 0, ptr %12, align 4
  br label %79

79:                                               ; preds = %76, %75
  call void @llvm.lifetime.end.p0(i64 4, ptr %11) #16
  %80 = load i32, ptr %12, align 4
  switch i32 %80, label %84 [
    i32 0, label %81
  ]

81:                                               ; preds = %79
  br label %82

82:                                               ; preds = %81, %53
  %83 = load ptr, ptr %10, align 8
  call void @XLogArchiveCleanup(ptr noundef %83)
  store i32 0, ptr %12, align 4
  br label %84

84:                                               ; preds = %82, %79
  call void @llvm.lifetime.end.p0(i64 8, ptr %10) #16
  call void @llvm.lifetime.end.p0(i64 1024, ptr %9) #16
  %85 = load i32, ptr %12, align 4
  switch i32 %85, label %87 [
    i32 0, label %86
    i32 1, label %86
  ]

86:                                               ; preds = %84, %84
  ret void

87:                                               ; preds = %84
  unreachable
}