; Function Attrs: nounwind uwtable
define internal fastcc void @RemoveXlogFile(ptr noundef nonnull %0, i64 noundef %1, ptr noundef nonnull captures(none) %2, i32 noundef %3) unnamed_addr #0 {
  %5 = alloca [1024 x i8], align 16
  call void @llvm.lifetime.start.p0(i64 1024, ptr nonnull %5) #26
  %6 = getelementptr inbounds nuw i8, ptr %0, i64 19
  %7 = call i32 (ptr, i64, ptr, ...) @pg_snprintf(ptr noundef nonnull %5, i64 noundef 1024, ptr noundef nonnull @.str.120, ptr noundef nonnull %6) #26
  %8 = load i8, ptr @wal_recycle, align 1, !range !4, !noundef !5
  %9 = trunc nuw i8 %8 to i1
  br i1 %9, label %10, label %31

10:                                               ; preds = %4
  %11 = load i64, ptr %2, align 8
  %.not = icmp ugt i64 %11, %1
  br i1 %.not, label %31, label %12

12:                                               ; preds = %10
  %13 = load ptr, ptr @XLogCtl, align 8
  %14 = getelementptr inbounds nuw i8, ptr %13, i64 328
  %15 = load i8, ptr %14, align 8, !range !4, !noundef !5
  %16 = trunc nuw i8 %15 to i1
  br i1 %16, label %17, label %31

17:                                               ; preds = %12
  %18 = call i32 @get_dirent_type(ptr noundef nonnull %5, ptr noundef nonnull %0, i1 noundef zeroext false, i32 noundef 13) #26
  %19 = icmp eq i32 %18, 2
  br i1 %19, label %20, label %31

20:                                               ; preds = %17
  %21 = call fastcc zeroext i1 @InstallXLogFileSegment(ptr noundef %2, ptr noundef %5, i1 noundef zeroext true, i64 noundef %1, i32 noundef %3)
  br i1 %21, label %22, label %31

22:                                               ; preds = %20
  %23 = call zeroext i1 @errstart(i32 noundef 13, ptr noundef null) #26
  br i1 %23, label %24, label %26

24:                                               ; preds = %22
  %25 = call i32 (ptr, ...) @errmsg_internal(ptr noundef nonnull @.str.121, ptr noundef nonnull %6) #26
  call void @errfinish(ptr noundef nonnull @.str.14, i32 noundef 4056, ptr noundef nonnull @__func__.RemoveXlogFile) #26
  br label %26

26:                                               ; preds = %24, %22
  %27 = load i32, ptr getelementptr inbounds nuw (i8, ptr @CheckpointStats, i64 56), align 8
  %28 = add i32 %27, 1
  store i32 %28, ptr getelementptr inbounds nuw (i8, ptr @CheckpointStats, i64 56), align 8
  %29 = load i64, ptr %2, align 8
  %30 = add i64 %29, 1
  store i64 %30, ptr %2, align 8
  br label %40

31:                                               ; preds = %20, %17, %12, %10, %4
  %32 = call zeroext i1 @errstart(i32 noundef 13, ptr noundef null) #26
  br i1 %32, label %33, label %35

33:                                               ; preds = %31
  %34 = call i32 (ptr, ...) @errmsg_internal(ptr noundef nonnull @.str.122, ptr noundef nonnull %6) #26
  call void @errfinish(ptr noundef nonnull @.str.14, i32 noundef 4068, ptr noundef nonnull @__func__.RemoveXlogFile) #26
  br label %35

35:                                               ; preds = %33, %31
  %36 = call i32 @durable_unlink(ptr noundef nonnull %5, i32 noundef 15) #26
  %.not14 = icmp eq i32 %36, 0
  br i1 %.not14, label %37, label %.critedge

37:                                               ; preds = %35
  %38 = load i32, ptr getelementptr inbounds nuw (i8, ptr @CheckpointStats, i64 52), align 4
  %39 = add i32 %38, 1
  store i32 %39, ptr getelementptr inbounds nuw (i8, ptr @CheckpointStats, i64 52), align 4
  br label %40

40:                                               ; preds = %37, %26
  call void @XLogArchiveCleanup(ptr noundef nonnull %6) #26
  br label %.critedge

.critedge:                                        ; preds = %35, %40
  call void @llvm.lifetime.end.p0(i64 1024, ptr nonnull %5) #26
  ret void
}